target datalayout = "e-m:e-p270:32:32-p271:32:32-p272:64:64-i64:64-i128:128-f80:128-n8:16:32:64-S128"
target triple = "x86_64-pc-linux-gnu"

%"class.std::__cxx11::basic_string" = type { %"struct.std::__cxx11::basic_string<char>::_Alloc_hider", i64, %union.anon }
%"struct.std::__cxx11::basic_string<char>::_Alloc_hider" = type { ptr }
%union.anon = type { i64, [8 x i8] }

@.str.16 = private unnamed_addr constant [3 x i8] c"u'\00", align 1
@.str.17 = private unnamed_addr constant [3 x i8] c"u\22\00", align 1
@.str.18 = private unnamed_addr constant [4 x i8] c"u8\22\00", align 1

; Function Attrs: mustprogress nounwind uwtable
define linkonce_odr dso_local noundef i64 @_ZNSt11char_traitsIcE6lengthEPKc(ptr noundef %0) #4 comdat align 2 {
  %2 = alloca ptr, align 8
  store ptr %0, ptr %2, align 8, !tbaa !11
  %3 = load ptr, ptr %2, align 8, !tbaa !11
  %4 = call i64 @strlen(ptr noundef %3) #3
  ret i64 %4
}

; Function Attrs: noinline noreturn nounwind uwtable
define linkonce_odr hidden void @__clang_call_terminate(ptr noundef %0) #11 comdat {
  %2 = call ptr @__cxa_begin_catch(ptr %0) #3
  call void @_ZSt9terminatev() #17
  unreachable
}

; Function Attrs: mustprogress nounwind uwtable
define available_externally noundef ptr @_ZNKSt7__cxx1112basic_stringIcSt11char_traitsIcESaIcEE7_M_dataEv(ptr noundef nonnull align 8 dereferenceable(32) %0) #4 align 2 {
  %2 = alloca ptr, align 8
  store ptr %0, ptr %2, align 8, !tbaa !4
  %3 = load ptr, ptr %2, align 8
  %4 = getelementptr inbounds nuw %"class.std::__cxx11::basic_string", ptr %3, i32 0, i32 0
  %5 = getelementptr inbounds nuw %"struct.std::__cxx11::basic_string<char>::_Alloc_hider", ptr %4, i32 0, i32 0
  %6 = load ptr, ptr %5, align 8, !tbaa !55
  ret ptr %6
}

; Function Attrs: mustprogress nounwind uwtable
define available_externally noundef i64 @_ZNKSt7__cxx1112basic_stringIcSt11char_traitsIcESaIcEE5rfindEPKcm(ptr noundef nonnull align 8 dereferenceable(32) %0, ptr noundef %1, i64 noundef %2) #4 align 2 {
  %4 = alloca ptr, align 8
  %5 = alloca ptr, align 8
  %6 = alloca i64, align 8
  store ptr %0, ptr %4, align 8, !tbaa !4
  store ptr %1, ptr %5, align 8, !tbaa !11
  store i64 %2, ptr %6, align 8, !tbaa !18
  %7 = load ptr, ptr %4, align 8
  %8 = load ptr, ptr %5, align 8, !tbaa !11
  %9 = load i64, ptr %6, align 8, !tbaa !18
  %10 = load ptr, ptr %5, align 8, !tbaa !11
  %11 = call noundef i64 @_ZNSt11char_traitsIcE6lengthEPKc(ptr noundef %10)
  %12 = call noundef i64 @_ZNKSt7__cxx1112basic_stringIcSt11char_traitsIcESaIcEE5rfindEPKcmm(ptr noundef nonnull align 8 dereferenceable(32) %7, ptr noundef %8, i64 noundef %9, i64 noundef %11) #3
  ret i64 %12
}

; Function Attrs: mustprogress nounwind uwtable
define available_externally noundef i64 @_ZNKSt7__cxx1112basic_stringIcSt11char_traitsIcESaIcEE4sizeEv(ptr noundef nonnull align 8 dereferenceable(32) %0) #4 align 2 {
  %2 = alloca ptr, align 8
  store ptr %0, ptr %2, align 8, !tbaa !4
  %3 = load ptr, ptr %2, align 8
  %4 = getelementptr inbounds nuw %"class.std::__cxx11::basic_string", ptr %3, i32 0, i32 1
  %5 = load i64, ptr %4, align 8, !tbaa !29
  ret i64 %5
}

; Function Attrs: mustprogress nounwind uwtable
define available_externally noundef ptr @_ZNKSt7__cxx1112basic_stringIcSt11char_traitsIcESaIcEE5c_strEv(ptr noundef nonnull align 8 dereferenceable(32) %0) #4 align 2 personality ptr @__gxx_personality_v0 {
  %2 = alloca ptr, align 8
  store ptr %0, ptr %2, align 8, !tbaa !4
  %3 = load ptr, ptr %2, align 8
  %4 = invoke noundef ptr @_ZNKSt7__cxx1112basic_stringIcSt11char_traitsIcESaIcEE7_M_dataEv(ptr noundef nonnull align 8 dereferenceable(32) %3)
          to label %5 unwind label %6

5:                                                ; preds = %1
  ret ptr %4

6:                                                ; preds = %1
  %7 = landingpad { ptr, i32 }
          catch ptr null
  %8 = extractvalue { ptr, i32 } %7, 0
  call void @__clang_call_terminate(ptr %8) #17
  unreachable
}

; Function Attrs: mustprogress uwtable
define dso_local noundef zeroext i1 @_Z7fixLineiRNSt7__cxx1112basic_stringIcSt11char_traitsIcESaIcEEE(i32 noundef %0, ptr noundef nonnull align 8 dereferenceable(32) %1) #5 {
  %3 = alloca i1, align 1
  %4 = alloca i32, align 4
  %5 = alloca ptr, align 8
  %6 = alloca ptr, align 8
  %7 = alloca i64, align 8
  %8 = alloca i32, align 4
  %9 = alloca i64, align 8
  store i32 %0, ptr %4, align 4, !tbaa !14
  store ptr %1, ptr %5, align 8, !tbaa !4
  call void @llvm.lifetime.start.p0(i64 8, ptr %6) #3
  %10 = load ptr, ptr %5, align 8, !tbaa !4
  %11 = call noundef ptr @_ZNKSt7__cxx1112basic_stringIcSt11char_traitsIcESaIcEE5c_strEv(ptr noundef nonnull align 8 dereferenceable(32) %10) #3
  store ptr %11, ptr %6, align 8, !tbaa !11
  call void @llvm.lifetime.start.p0(i64 8, ptr %7) #3
  %12 = load ptr, ptr %5, align 8, !tbaa !4
  %13 = call noundef i64 @_ZNKSt7__cxx1112basic_stringIcSt11char_traitsIcESaIcEE4sizeEv(ptr noundef nonnull align 8 dereferenceable(32) %12) #3
  store i64 %13, ptr %7, align 8, !tbaa !18
  %14 = load ptr, ptr %6, align 8, !tbaa !11
  %15 = call noundef ptr @strstr(ptr noundef %14, ptr noundef @.str.16) #19
  %16 = icmp ne ptr %15, null
  br i1 %16, label %26, label %17

17:                                               ; preds = %2
  %18 = load ptr, ptr %6, align 8, !tbaa !11
  %19 = call noundef ptr @strstr(ptr noundef %18, ptr noundef @.str.17) #19
  %20 = icmp ne ptr %19, null
  br i1 %20, label %26, label %21

21:                                               ; preds = %17
  %22 = load ptr, ptr %6, align 8, !tbaa !11
  %23 = call noundef ptr @strstr(ptr noundef %22, ptr noundef @.str.18) #19
  %24 = icmp ne ptr %23, null
  br i1 %24, label %26, label %25

25:                                               ; preds = %21
  store i1 false, ptr %3, align 1
  store i32 1, ptr %8, align 4
  br label %107

26:                                               ; preds = %21, %17, %2
  call void @llvm.lifetime.start.p0(i64 8, ptr %9) #3
  %27 = load ptr, ptr %5, align 8, !tbaa !4
  %28 = call noundef i64 @_ZNKSt7__cxx1112basic_stringIcSt11char_traitsIcESaIcEE4sizeEv(ptr noundef nonnull align 8 dereferenceable(32) %27) #3
  store i64 %28, ptr %7, align 8, !tbaa !18
  store i64 %28, ptr %9, align 8, !tbaa !18
  %29 = load i64, ptr %7, align 8, !tbaa !18
  %30 = icmp ugt i64 %29, 1073741823
  br i1 %30, label %31, label %32

31:                                               ; preds = %26
  store i1 true, ptr %3, align 1
  store i32 1, ptr %8, align 4
  br label %106

32:                                               ; preds = %26
  br label %33

33:                                               ; preds = %52, %32
  %34 = load i64, ptr %9, align 8, !tbaa !18
  %35 = icmp ugt i64 %34, 0
  br i1 %35, label %36, label %41

36:                                               ; preds = %33
  %37 = load ptr, ptr %5, align 8, !tbaa !4
  %38 = load i64, ptr %9, align 8, !tbaa !18
  %39 = call noundef i64 @_ZNKSt7__cxx1112basic_stringIcSt11char_traitsIcESaIcEE5rfindEPKcm(ptr noundef nonnull align 8 dereferenceable(32) %37, ptr noundef @.str.17, i64 noundef %38)
  store i64 %39, ptr %9, align 8, !tbaa !18
  %40 = icmp ne i64 %39, -1
  br label %41

41:                                               ; preds = %36, %33
  %42 = phi i1 [ false, %33 ], [ %40, %36 ]
  br i1 %42, label %43, label %55

43:                                               ; preds = %41
  %44 = load ptr, ptr %5, align 8, !tbaa !4
  %45 = load i64, ptr %9, align 8, !tbaa !18
  %46 = call noundef zeroext i1 @_Z5fixAtRNSt7__cxx1112basic_stringIcSt11char_traitsIcESaIcEEEm(ptr noundef nonnull align 8 dereferenceable(32) %44, i64 noundef %45)
  br i1 %46, label %47, label %48

47:                                               ; preds = %43
  store i1 true, ptr %3, align 1
  store i32 1, ptr %8, align 4
  br label %106

48:                                               ; preds = %43
  %49 = load i64, ptr %9, align 8, !tbaa !18
  %50 = icmp eq i64 %49, 0
  br i1 %50, label %51, label %52

51:                                               ; preds = %48
  br label %55

52:                                               ; preds = %48
  %53 = load i64, ptr %9, align 8, !tbaa !18
  %54 = add i64 %53, -1
  store i64 %54, ptr %9, align 8, !tbaa !18
  br label %33, !llvm.loop !32

55:                                               ; preds = %51, %41
  %56 = load ptr, ptr %5, align 8, !tbaa !4
  %57 = call noundef i64 @_ZNKSt7__cxx1112basic_stringIcSt11char_traitsIcESaIcEE4sizeEv(ptr noundef nonnull align 8 dereferenceable(32) %56) #3
  store i64 %57, ptr %7, align 8, !tbaa !18
  store i64 %57, ptr %9, align 8, !tbaa !18
  br label %58

58:                                               ; preds = %77, %55
  %59 = load i64, ptr %9, align 8, !tbaa !18
  %60 = icmp ugt i64 %59, 0
  br i1 %60, label %61, label %66

61:                                               ; preds = %58
  %62 = load ptr, ptr %5, align 8, !tbaa !4
  %63 = load i64, ptr %9, align 8, !tbaa !18
  %64 = call noundef i64 @_ZNKSt7__cxx1112basic_stringIcSt11char_traitsIcESaIcEE5rfindEPKcm(ptr noundef nonnull align 8 dereferenceable(32) %62, ptr noundef @.str.16, i64 noundef %63)
  store i64 %64, ptr %9, align 8, !tbaa !18
  %65 = icmp ne i64 %64, -1
  br label %66

66:                                               ; preds = %61, %58
  %67 = phi i1 [ false, %58 ], [ %65, %61 ]
  br i1 %67, label %68, label %80

68:                                               ; preds = %66
  %69 = load ptr, ptr %5, align 8, !tbaa !4
  %70 = load i64, ptr %9, align 8, !tbaa !18
  %71 = call noundef zeroext i1 @_Z5fixAtRNSt7__cxx1112basic_stringIcSt11char_traitsIcESaIcEEEm(ptr noundef nonnull align 8 dereferenceable(32) %69, i64 noundef %70)
  br i1 %71, label %72, label %73

72:                                               ; preds = %68
  store i1 true, ptr %3, align 1
  store i32 1, ptr %8, align 4
  br label %106

73:                                               ; preds = %68
  %74 = load i64, ptr %9, align 8, !tbaa !18
  %75 = icmp eq i64 %74, 0
  br i1 %75, label %76, label %77

76:                                               ; preds = %73
  br label %80

77:                                               ; preds = %73
  %78 = load i64, ptr %9, align 8, !tbaa !18
  %79 = add i64 %78, -1
  store i64 %79, ptr %9, align 8, !tbaa !18
  br label %58, !llvm.loop !33

80:                                               ; preds = %76, %66
  %81 = load ptr, ptr %5, align 8, !tbaa !4
  %82 = call noundef i64 @_ZNKSt7__cxx1112basic_stringIcSt11char_traitsIcESaIcEE4sizeEv(ptr noundef nonnull align 8 dereferenceable(32) %81) #3
  store i64 %82, ptr %7, align 8, !tbaa !18
  store i64 %82, ptr %9, align 8, !tbaa !18
  br label %83

83:                                               ; preds = %102, %80
  %84 = load i64, ptr %9, align 8, !tbaa !18
  %85 = icmp ugt i64 %84, 0
  br i1 %85, label %86, label %91

86:                                               ; preds = %83
  %87 = load ptr, ptr %5, align 8, !tbaa !4
  %88 = load i64, ptr %9, align 8, !tbaa !18
  %89 = call noundef i64 @_ZNKSt7__cxx1112basic_stringIcSt11char_traitsIcESaIcEE5rfindEPKcm(ptr noundef nonnull align 8 dereferenceable(32) %87, ptr noundef @.str.18, i64 noundef %88)
  store i64 %89, ptr %9, align 8, !tbaa !18
  %90 = icmp ne i64 %89, -1
  br label %91

91:                                               ; preds = %86, %83
  %92 = phi i1 [ false, %83 ], [ %90, %86 ]
  br i1 %92, label %93, label %105

93:                                               ; preds = %91
  %94 = load ptr, ptr %5, align 8, !tbaa !4
  %95 = load i64, ptr %9, align 8, !tbaa !18
  %96 = call noundef zeroext i1 @_Z5fixAtRNSt7__cxx1112basic_stringIcSt11char_traitsIcESaIcEEEm(ptr noundef nonnull align 8 dereferenceable(32) %94, i64 noundef %95)
  br i1 %96, label %97, label %98

97:                                               ; preds = %93
  store i1 true, ptr %3, align 1
  store i32 1, ptr %8, align 4
  br label %106

98:                                               ; preds = %93
  %99 = load i64, ptr %9, align 8, !tbaa !18
  %100 = icmp eq i64 %99, 0
  br i1 %100, label %101, label %102

101:                                              ; preds = %98
  br label %105

102:                                              ; preds = %98
  %103 = load i64, ptr %9, align 8, !tbaa !18
  %104 = add i64 %103, -1
  store i64 %104, ptr %9, align 8, !tbaa !18
  br label %83, !llvm.loop !34

105:                                              ; preds = %101, %91
  store i1 false, ptr %3, align 1
  store i32 1, ptr %8, align 4
  br label %106

106:                                              ; preds = %105, %97, %72, %47, %31
  call void @llvm.lifetime.end.p0(i64 8, ptr %9) #3
  br label %107

107:                                              ; preds = %106, %25
  call void @llvm.lifetime.end.p0(i64 8, ptr %7) #3
  call void @llvm.lifetime.end.p0(i64 8, ptr %6) #3
  %108 = load i1, ptr %3, align 1
  ret i1 %108
}