; Function Attrs: mustprogress uwtable
define dso_local noundef zeroext i1 @_Z7fixLineiRNSt7__cxx1112basic_stringIcSt11char_traitsIcESaIcEEE(i32 %0, ptr noundef nonnull align 8 dereferenceable(32) %1) local_unnamed_addr #9 personality ptr @__gxx_personality_v0 {
  %3 = load ptr, ptr %1, align 8, !tbaa !9
  %4 = getelementptr inbounds nuw i8, ptr %1, i64 8
  %5 = tail call noundef ptr @strstr(ptr noundef nonnull dereferenceable(1) %3, ptr noundef nonnull dereferenceable(1) @.str.16) #26
  %.not = icmp eq ptr %5, null
  br i1 %.not, label %6, label %10

6:                                                ; preds = %2
  %7 = tail call noundef ptr @strstr(ptr noundef nonnull dereferenceable(1) %3, ptr noundef nonnull dereferenceable(1) @.str.17) #26
  %.not40 = icmp eq ptr %7, null
  br i1 %.not40, label %8, label %10

8:                                                ; preds = %6
  %9 = tail call noundef ptr @strstr(ptr noundef nonnull dereferenceable(1) %3, ptr noundef nonnull dereferenceable(1) @.str.18) #26
  %.not41 = icmp eq ptr %9, null
  br i1 %.not41, label %.critedge4, label %10

10:                                               ; preds = %8, %6, %2
  %11 = load i64, ptr %4, align 8, !tbaa !17
  %12 = icmp ugt i64 %11, 1073741823
  br i1 %12, label %.critedge4, label %.preheader

.preheader:                                       ; preds = %10
  %.not4250 = icmp eq i64 %11, 0
  br i1 %.not4250, label %.critedge4, label %.lr.ph

.lr.ph:                                           ; preds = %.preheader, %16
  %.051 = phi i64 [ %17, %16 ], [ %11, %.preheader ]
  %13 = tail call noundef i64 @_ZNKSt7__cxx1112basic_stringIcSt11char_traitsIcESaIcEE5rfindEPKcmm(ptr noundef nonnull align 8 dereferenceable(32) %1, ptr noundef nonnull @.str.17, i64 noundef %.051, i64 noundef 2) #21
  %.not43 = icmp eq i64 %13, -1
  br i1 %.not43, label %.critedge, label %14

14:                                               ; preds = %.lr.ph
  %15 = tail call noundef zeroext i1 @_Z5fixAtRNSt7__cxx1112basic_stringIcSt11char_traitsIcESaIcEEEm(ptr noundef nonnull align 8 dereferenceable(32) %1, i64 noundef %13)
  br i1 %15, label %.critedge4, label %16

16:                                               ; preds = %14
  %17 = add i64 %13, -1
  %or.cond = icmp ult i64 %13, 2
  br i1 %or.cond, label %.critedge, label %.lr.ph, !llvm.loop !29

.critedge:                                        ; preds = %.lr.ph, %16
  %.pre = load i64, ptr %4, align 8, !tbaa !17
  %.not4454 = icmp eq i64 %.pre, 0
  br i1 %.not4454, label %.critedge4, label %.lr.ph56

.lr.ph56:                                         ; preds = %.critedge, %21
  %.155 = phi i64 [ %22, %21 ], [ %.pre, %.critedge ]
  %18 = tail call noundef i64 @_ZNKSt7__cxx1112basic_stringIcSt11char_traitsIcESaIcEE5rfindEPKcmm(ptr noundef nonnull align 8 dereferenceable(32) %1, ptr noundef nonnull @.str.16, i64 noundef %.155, i64 noundef 2) #21
  %.not45 = icmp eq i64 %18, -1
  br i1 %.not45, label %.critedge2, label %19

19:                                               ; preds = %.lr.ph56
  %20 = tail call noundef zeroext i1 @_Z5fixAtRNSt7__cxx1112basic_stringIcSt11char_traitsIcESaIcEEEm(ptr noundef nonnull align 8 dereferenceable(32) %1, i64 noundef %18)
  br i1 %20, label %.critedge4, label %21

21:                                               ; preds = %19
  %22 = add i64 %18, -1
  %or.cond75 = icmp ult i64 %18, 2
  br i1 %or.cond75, label %.critedge2, label %.lr.ph56, !llvm.loop !30

.critedge2:                                       ; preds = %.lr.ph56, %21
  %.pre70 = load i64, ptr %4, align 8, !tbaa !17
  %.not4659 = icmp eq i64 %.pre70, 0
  br i1 %.not4659, label %.critedge4, label %.lr.ph61

.lr.ph61:                                         ; preds = %.critedge2, %26
  %.260 = phi i64 [ %27, %26 ], [ %.pre70, %.critedge2 ]
  %23 = tail call noundef i64 @_ZNKSt7__cxx1112basic_stringIcSt11char_traitsIcESaIcEE5rfindEPKcmm(ptr noundef nonnull align 8 dereferenceable(32) %1, ptr noundef nonnull @.str.18, i64 noundef %.260, i64 noundef 3) #21
  %.not47 = icmp eq i64 %23, -1
  br i1 %.not47, label %.critedge4, label %24

24:                                               ; preds = %.lr.ph61
  %25 = tail call noundef zeroext i1 @_Z5fixAtRNSt7__cxx1112basic_stringIcSt11char_traitsIcESaIcEEEm(ptr noundef nonnull align 8 dereferenceable(32) %1, i64 noundef %23)
  br i1 %25, label %.critedge4, label %26

26:                                               ; preds = %24
  %27 = add i64 %23, -1
  %or.cond76 = icmp ult i64 %23, 2
  br i1 %or.cond76, label %.critedge4, label %.lr.ph61, !llvm.loop !31

.critedge4:                                       ; preds = %14, %19, %.lr.ph61, %26, %24, %.preheader, %.critedge, %.critedge2, %10, %8
  %.034 = phi i1 [ false, %8 ], [ true, %10 ], [ false, %.critedge2 ], [ false, %.critedge ], [ false, %.preheader ], [ false, %.lr.ph61 ], [ false, %26 ], [ true, %24 ], [ true, %19 ], [ true, %14 ]
  ret i1 %.034
}